; Function Attrs: mustprogress nofree norecurse nosync nounwind sspstrong willreturn memory(argmem: read) uwtable
define internal range(i32 0, -2147483648) i32 @utf32be_mbc_to_code(ptr noundef readonly captures(none) %0, ptr readnone captures(none) %1, ptr readnone captures(none) %2) #2 {
  %4 = load i8, ptr %0, align 1, !tbaa !6
  %5 = zext i8 %4 to i32
  %6 = getelementptr inbounds nuw i8, ptr %0, i64 1
  %7 = load i8, ptr %6, align 1, !tbaa !6
  %8 = zext i8 %7 to i32
  %9 = shl nuw nsw i32 %5, 16
  %10 = shl nuw nsw i32 %8, 8
  %11 = or disjoint i32 %10, %9
  %12 = getelementptr inbounds nuw i8, ptr %0, i64 2
  %13 = load i8, ptr %12, align 1, !tbaa !6
  %14 = zext i8 %13 to i32
  %15 = or disjoint i32 %11, %14
  %16 = shl nuw nsw i32 %15, 8
  %17 = getelementptr inbounds nuw i8, ptr %0, i64 3
  %18 = load i8, ptr %17, align 1, !tbaa !6
  %19 = zext i8 %18 to i32
  %20 = or disjoint i32 %16, %19
  ret i32 %20
}